; Function Attrs: nofree nosync nounwind memory(readwrite, inaccessiblemem: none) uwtable
define void @Aig_ManMarkAutonomous_rec(ptr noundef readonly captures(none) %0, ptr noundef captures(none) %1) local_unnamed_addr #3 {
  %3 = getelementptr i8, ptr %0, i64 312
  %.val = load i32, ptr %3, align 8, !tbaa !33
  %4 = getelementptr i8, ptr %1, i64 32
  %.val12 = load i32, ptr %4, align 8, !tbaa !34
  %.not = icmp eq i32 %.val12, %.val
  br i1 %.not, label %.critedge, label %5

5:                                                ; preds = %2
  store i32 %.val, ptr %4, align 8, !tbaa !34
  %6 = getelementptr i8, ptr %1, i64 40
  %7 = getelementptr inbounds nuw i8, ptr %1, i64 24
  %8 = load i64, ptr %7, align 8
  %9 = and i64 %8, 4294967232
  %.not17 = icmp eq i64 %9, 0
  br i1 %.not17, label %.critedge, label %.lr.ph

.lr.ph:                                           ; preds = %5, %12
  %indvars.iv = phi i64 [ %indvars.iv.next, %12 ], [ 0, %5 ]
  %.val14 = load ptr, ptr %6, align 8, !tbaa !26
  %10 = getelementptr inbounds nuw ptr, ptr %.val14, i64 %indvars.iv
  %11 = load ptr, ptr %10, align 8, !tbaa !30
  %.not11 = icmp eq ptr %11, null
  br i1 %.not11, label %.critedge, label %12

12:                                               ; preds = %.lr.ph
  tail call void @Aig_ManMarkAutonomous_rec(ptr noundef %0, ptr noundef nonnull %11)
  %indvars.iv.next = add nuw nsw i64 %indvars.iv, 1
  %13 = load i64, ptr %7, align 8
  %14 = lshr i64 %13, 6
  %15 = and i64 %14, 67108863
  %16 = icmp samesign ult i64 %indvars.iv.next, %15
  br i1 %16, label %.lr.ph, label %.critedge, !llvm.loop !35

.critedge:                                        ; preds = %12, %.lr.ph, %5, %2
  ret void
}